(dp1
S'proceedings of the seventh conference (1991) on uncertainty in artificial intelligence'
p2
S'UAI'
p3
sS"icde '11 proceedings of the 2011 ieee 27th international conference on data engineering"
p4
S'ICDE'
p5
sS"aaai'90 proceedings of the eighth national conference on artificial intelligence - volume 1"
p6
S'AAAI'
p7
sS"aaai'90 proceedings of the eighth national conference on artificial intelligence - volume 2"
p8
g7
sS'seventh international conference on information and knowledge management'
p9
S'CIKM'
p10
sS"ijcai'81 proceedings of the 7th international joint conference on artificial intelligence - volume 1"
p11
S'IJCAI'
p12
sS"ecml pkdd'12 proceedings of the 2012 european conference on machine learning and knowledge discovery in databases - volume part i"
p13
S'PKDD'
p14
sS'international conference on information and knowledge management'
p15
g10
sS'proceedings of the 20th acm sigkdd international conference on knowledge discovery and data mining'
p16
S'KDD'
p17
sS'proceedings of the 17th acm conference on information and knowledge management'
p18
g10
sS"pakdd'12 proceedings of the 16th pacific-asia conference on advances in knowledge discovery and data mining - volume part ii"
p19
S'PAKDD'
p20
sS"ijcai'13 proceedings of the twenty-third international joint conference on artificial intelligence"
p21
g12
sS"ijcai'01 proceedings of the 17th international joint conference on artificial intelligence - volume 1"
p22
g12
sS"ijcai'01 proceedings of the 17th international joint conference on artificial intelligence - volume 2"
p23
g12
sS'sigir 91 14th international acm/sigir conference on research & development in information retrieval'
p24
S'SIGIR'
p25
sS"sigir '88 proceedings of the 11th annual international acm sigir conference on research and development in information retrieval"
p26
g25
sS"pods '94 proceedings of the thirteenth acm sigact-sigmod-sigart symposium on principles of database systems"
p27
S'PODS'
p28
sS"advances in database technology - edbt '88"
p29
S'EDBT'
p30
sS"vldb 91 17th int'l conference on very large data bases"
p31
S'VLDB'
p32
sS'proceedings of the 14th acm sigkdd international conference on knowledge discovery and data mining'
p33
g17
sS"ijcai'11 proceedings of the twenty-second international joint conference on artificial intelligence - volume volume two"
p34
g12
sS'the vldb journal \xe2\x80\x94 the international journal on very large data bases - prototypes of deductive database systems'
p35
g32
sS'ninth international conference on information and knowledge management'
p36
g10
sS'proceedings of the 18th acm sigkdd international conference on knowledge discovery and data mining'
p37
g17
sS'the eleventh acm sigkdd international conference on knowledge discovery and data mining'
p38
g17
sS"16th international acm/sigir '93 conference on research and development in information retrieval"
p39
g25
sS"pakdd '02 proceedings of the 6th pacific-asia conference on advances in knowledge discovery and data mining"
p40
g20
sS"uai '92 proceedings of the eighth conference on uncertainty in artificial intelligence"
p41
g3
sS'proceedings of the 16th acm sigkdd international conference on knowledge discovery and data mining'
p42
g17
sS"icde '08 proceedings of the 2008 ieee 24th international conference on data engineering"
p43
g5
sS"aaai'05 proceedings of the 20th national conference on artificial intelligence - volume 1"
p44
g7
sS"aaai'05 proceedings of the 20th national conference on artificial intelligence - volume 3"
p45
g7
sS"aaai'05 proceedings of the 20th national conference on artificial intelligence - volume 2"
p46
g7
sS"aaai'05 proceedings of the 20th national conference on artificial intelligence - volume 4"
p47
g7
sS'proceedings of the 13th international world wide web conference on alternate track papers & posters'
p48
S'WWW'
p49
sS"ecir '09 proceedings of the 31th european conference on ir research on advances in information retrieval"
p50
S'ECIR'
p51
sS"icde '09 proceedings of the 2009 ieee international conference on data engineering"
p52
g5
sS"ecml pkdd'10 proceedings of the 2010 european conference on machine learning and knowledge discovery in databases: part ii"
p53
g14
sS"pakdd'11 proceedings of the 15th pacific-asia conference on advances in knowledge discovery and data mining - volume part ii"
p54
g20
sS"sigmod '97 proceedings of the 1997 acm sigmod international conference on management of data"
p55
S'SIGMOD'
p56
sS'proceedings of the 21st annual international acm sigir conference on research and development in information retrieval'
p57
g25
sS"ijcai'69 proceedings of the 1st international joint conference on artificial intelligence"
p58
g12
sS"ecir'08 proceedings of the ir research, 30th european conference on advances in information retrieval"
p59
g51
sS'aaai-92 proceedings of the tenth national conference on artificial intelligence'
p60
g7
sS'proceedings of the 2003 acm sigmod international conference on management of data'
p61
g56
sS"uai '01 proceedings of the 17th conference in uncertainty in artificial intelligence"
p62
g3
sS"pods '91 proceedings of the tenth acm sigact-sigmod-sigart symposium on principles of database systems"
p63
g28
sS'the 26th acm/sigir international symposium on information retrieval'
p64
g25
sS"icml '00 proceedings of the seventeenth international conference on machine learning"
p65
S'ICML'
p66
sS'proceedings of the eighth international aaai conference on weblogs and social media'
p67
g7
sS"sigir '84 proceedings of the 7th annual international acm sigir conference on research and development in information retrieval"
p68
g25
sS"pkdd '97 proceedings of the first european symposium on principles of data mining and knowledge discovery"
p69
g14
sS'20th international world wide web conference'
p70
g49
sS"pods '93 proceedings of the twelfth acm sigact-sigmod-sigart symposium on principles of database systems"
p71
g28
sS"ijcai'79 proceedings of the 6th international joint conference on artificial intelligence - volume 1"
p72
g12
sS"pods '89 proceedings of the eighth acm sigact-sigmod-sigart symposium on principles of database systems"
p73
g28
sS'acm sigkdd international conference on knowledge discovery and data mining'
p74
g17
sS"sigir'90 13th acm sigir international conference on research and development in information retrieval"
p75
g25
sS'proceedings of the 32nd international acm sigir conference on research and development in information retrieval'
p76
g25
sS"sigmod '82 proceedings of the 1982 acm sigmod international conference on management of data"
p77
g56
sS'the 17th international world wide web conference'
p78
g49
sS"cikm '96 proceedings of the fifth international conference on information and knowledge management"
p79
g10
sS"ecml '07 proceedings of the 18th european conference on machine learning"
p80
g14
sS"sigir '00 proceedings of the 23rd annual international acm sigir conference on research and development in information retrieval"
p81
g25
sS"pods '83 proceedings of the 2nd acm sigact-sigmod symposium on principles of database systems"
p82
g28
sS'proceedings of the 2011 acm sigmod international conference on management of data'
p83
g56
sS"uai '09 proceedings of the twenty-fifth conference on uncertainty in artificial intelligence"
p84
g3
sS"sigmod '86 proceedings of the 1986 acm sigmod international conference on management of data"
p85
g56
sS"edbt '02 proceedings of the 8th international conference on extending database technology: advances in database technology"
p86
g30
sS'proceedings of the seventh international conference on information and knowledge management'
p87
g10
sS"sigmod '85 proceedings of the 1985 acm sigmod international conference on management of data"
p88
g56
sS'proceedings of the 31st annual international acm sigir conference on research and development in information retrieval'
p89
g25
sS"vldb '81 proceedings of the seventh international conference on very large data bases - volume 7"
p90
g32
sS"vldb '92 proceedings of the 18th international conference on very large data bases"
p91
g32
sS"vldb '99 proceedings of the 25th international conference on very large data bases"
p92
g32
sS'proceedings of the 17th international conference on world wide web'
p93
g49
sS'the 27th acm/sigir international symposium on information retrieval 2004'
p94
g25
sS'23rd international world wide web conference'
p95
g49
sS"sigir '94 proceedings of the 17th annual international acm sigir conference on research and development in information retrieval"
p96
g25
sS"sigmod '81 proceedings of the 1981 acm sigmod international conference on management of data"
p97
g56
sS'proceedings of the 18th acm conference on information and knowledge management'
p98
g10
sS'the vldb journal \xe2\x80\x94 the international journal on very large data bases - parallelism in database systems'
p99
g32
sS'proceedings of the eleventh international conference on information and knowledge management'
p100
g10
sS"icdm '10 proceedings of the 2010 ieee international conference on data mining"
p101
S'ICDM'
p102
sS"pods '87 proceedings of the sixth acm sigact-sigmod-sigart symposium on principles of database systems"
p103
g28
sS'proceedings of the tenth international conference on information and knowledge management'
p104
g10
sS"ijcai'85 proceedings of the 9th international joint conference on artificial intelligence - volume 2"
p105
g12
sS'www7 proceedings of the seventh international conference on world wide web 7'
p106
g49
sS'proceedings of the 13th international conference on world wide web'
p107
g49
sS"ijcai'91 proceedings of the 12th international joint conference on artificial intelligence - volume 2"
p108
g12
sS"ijcai'91 proceedings of the 12th international joint conference on artificial intelligence - volume 1"
p109
g12
sS"sigir '82 proceedings of the 5th annual acm conference on research and development in information retrieval"
p110
g25
sS"icde '00 proceedings of the 16th international conference on data engineering"
p111
g5
sS"icml '09 proceedings of the 26th annual international conference on machine learning"
p112
g66
sS"www '99 proceedings of the eighth international conference on world wide web"
p113
g49
sS'sigir87 the 10th annual international acm/sigir conference on research and development in information retrieval'
p114
g25
sS"aaai'08 proceedings of the 23rd national conference on artificial intelligence - volume 3"
p115
g7
sS'proceedings of the 20th international conference on world wide web'
p116
g49
sS"pods '86 proceedings of the fifth acm sigact-sigmod symposium on principles of database systems"
p117
g28
sS'the vldb journal \xe2\x80\x94 the international journal on very large data bases'
p118
g32
sS"sigir '92 proceedings of the 15th annual international acm sigir conference on research and development in information retrieval"
p119
g25
sS"sigir '85 proceedings of the 8th annual international acm sigir conference on research and development in information retrieval"
p120
g25
sS'proceedings of the 33rd international acm sigir conference on research and development in information retrieval'
p121
g25
sS"icdm '05 proceedings of the fifth ieee international conference on data mining"
p122
g102
sS"uai'02 proceedings of the eighteenth conference on uncertainty in artificial intelligence"
p123
g3
sS"aaai'06 proceedings of the 21st national conference on artificial intelligence - volume 2"
p124
g7
sS'proceedings of the eighth acm sigkdd international conference on knowledge discovery and data mining'
p125
g17
sS"aaai'06 proceedings of the 21st national conference on artificial intelligence - volume 1"
p126
g7
sS"pods '01 proceedings of the twentieth acm sigmod-sigact-sigart symposium on principles of database systems"
p127
g28
sS"uai'98 proceedings of the fourteenth conference on uncertainty in artificial intelligence"
p128
g3
sS"vldb '07 proceedings of the 33rd international conference on very large data bases"
p129
g32
sS"ecml pkdd '08 proceedings of the european conference on machine learning and knowledge discovery in databases - part ii"
p130
g14
sS'the 34th international acm sigir conference on research and development in information retrieval'
p131
g25
sS"icml '97 proceedings of the fourteenth international conference on machine learning"
p132
g66
sS"icde '13 proceedings of the 2013 ieee international conference on data engineering (icde 2013)"
p133
g5
sS'proceedings of the 2006 acm sigmod international conference on management of data'
p134
g56
sS"vldb '90 proceedings of the 16th international conference on very large data bases"
p135
g32
sS"sigmod '95 proceedings of the 1995 acm sigmod international conference on management of data"
p136
g56
sS"icde '97 proceedings of the thirteenth international conference on data engineering"
p137
g5
sS"sigmod/pods '94 joint acm sigmod international conference on management of data and acm sigmod & acm symposium principles of database systems"
p138
g28
sS'the vldb journal \xe2\x80\x94 the international journal on very large data bases - persistent object systems'
p139
g32
sS'proceedings of the sixth acm sigkdd international conference on knowledge discovery and data mining'
p140
g17
sS"pakdd'03 proceedings of the 7th pacific-asia conference on advances in knowledge discovery and data mining"
p141
g20
sS"sigmod '90 proceedings of the 1990 acm sigmod international conference on management of data"
p142
g56
sS'proceedings of the 17th acm sigkdd international conference on knowledge discovery and data mining'
p143
g17
sS'proceedings of the 18th international conference on world wide web'
p144
g49
sS'proceedings of the 15th international conference on world wide web'
p145
g49
sS"www '03 proceedings of the 12th international conference on world wide web"
p146
g49
sS"ijcai'11 proceedings of the twenty-second international joint conference on artificial intelligence - volume volume one"
p147
g12
sS'the 15th international world wide web conference 2006'
p148
g49
sS"pakdd'10 proceedings of the 14th pacific-asia conference on advances in knowledge discovery and data mining - volume part ii"
p149
g20
sS'the 32nd international acm sigir conference on research and development in information retrieval'
p150
g25
sS"icde '98 proceedings of the fourteenth international conference on data engineering"
p151
g5
sS'27th international conference on very large data bases'
p152
g32
sS"edbt '94 proceedings of the 4th international conference on extending database technology: advances in database technology"
p153
g30
sS"icdm '11 proceedings of the 2011 ieee 11th international conference on data mining"
p154
g102
sS"aaai'97/iaai'97 proceedings of the fourteenth national conference on artificial intelligence and ninth conference on innovative applications of artificial intelligence"
p155
g7
sS"pods '99 proceedings of the eighteenth acm sigmod-sigact-sigart symposium on principles of database systems"
p156
g28
sS'the eighth acm sigkdd international conference on knowledge discovery and data mining'
p157
g17
sS"vldb '96 proceedings of the 22th international conference on very large data bases"
p158
g32
sS"vldb '75 proceedings of the 1st international conference on very large data bases"
p159
g32
sS'proceedings of the ninth international conference on information and knowledge management'
p160
g10
sS"vldb '80 proceedings of the sixth international conference on very large data bases - volume 6"
p161
g32
sS"sigmod '80 proceedings of the 1980 acm sigmod international conference on management of data"
p162
g56
sS'proceedings of the 19th international conference on world wide web'
p163
g49
sS"ecml pkdd'11 proceedings of the 2011 european conference on machine learning and knowledge discovery in databases - volume part ii"
p164
g14
sS"edbt '00 proceedings of the 7th international conference on extending database technology: advances in database technology"
p165
g30
sS'machine learning: ecml 2005: 16th european conference on machine learning, porto, portugal, october 3-7, 2005, proceedings (lecture notes in computer science ... / lecture notes in artificial intelligence)'
p166
g14
sS"icdm '08 proceedings of the 2008 eighth ieee international conference on data mining"
p167
g102
sS'proceedings of the 20th acm international conference on information and knowledge management'
p168
g10
sS"ecir'12 proceedings of the 34th european conference on advances in information retrieval"
p169
g51
sS'24th international world wide web conference'
p170
g49
sS"sigmod '76 proceedings of the 1976 acm sigmod international conference on management of data"
p171
g56
sS'proceedings of the acm sigmod international conference on management of data'
p172
g56
sS'proceedings of the 2013 acm sigmod international conference on management of data'
p173
g56
sS"icde '12 proceedings of the 2012 ieee 28th international conference on data engineering"
p174
g5
sS'proceedings of the tenth acm sigkdd international conference on knowledge discovery and data mining'
p175
g17
sS"pakdd'05 proceedings of the 9th pacific-asia conference on advances in knowledge discovery and data mining"
p176
g20
sS"ijcai'05 proceedings of the 19th international joint conference on artificial intelligence"
p177
g12
sS'proceedings of the 21st acm international conference on information and knowledge management'
p178
g10
sS"ijcai'75 proceedings of the 4th international joint conference on artificial intelligence - volume 1"
p179
g12
sS"sigir '87 proceedings of the 10th annual international acm sigir conference on research and development in information retrieval"
p180
g25
sS"pakdd'07 proceedings of the 11th pacific-asia conference on advances in knowledge discovery and data mining"
p181
g20
sS'9th international world wide web conference: the web: the next generation, amsterdam, the netherlands, may 15-19, 2000: conference proceedings'
p182
g49
sS"ijcai'03 proceedings of the 18th international joint conference on artificial intelligence"
p183
g12
sS"pkdd '02 proceedings of the 6th european conference on principles of data mining and knowledge discovery"
p184
g14
sS"icml '99 proceedings of the sixteenth international conference on machine learning"
p185
g66
sS"uai'03 proceedings of the nineteenth conference on uncertainty in artificial intelligence"
p186
g3
sS'proceedings of the 23rd international conference on world wide web'
p187
g49
sS'proceedings of the 24th international conference on machine learning'
p188
g66
sS'the 36th international acm sigir conference on research and development in information retrieval'
p189
g25
sS'proceedings of the 12th acm sigkdd international conference on knowledge discovery and data mining'
p190
g17
sS'16th international world wide web conference'
p191
g49
sS"ijcai'83 proceedings of the eighth international joint conference on artificial intelligence - volume 1"
p192
g12
sS"ijcai'83 proceedings of the eighth international joint conference on artificial intelligence - volume 2"
p193
g12
sS"uai '89 proceedings of the fifth annual conference on uncertainty in artificial intelligence"
p194
g3
sS'the 37th international acm sigir conference on research and development in information retrieval'
p195
g25
sS'conference on information and knowledge management'
p196
g10
sS'theory and applications of difference equations and discrete dynamical systems: icdea, muscat, oman, may 26 - 30, 2013'
p197
g5
sS"icml '98 proceedings of the fifteenth international conference on machine learning"
p198
g66
sS"vldb 92 18th int'l conference on very large data bases"
p199
g32
sS"sigmod '12 proceedings of the 2012 acm sigmod international conference on management of data"
p200
g56
sS"sigmod '75 proceedings of the 1975 acm sigmod international conference on management of data"
p201
g56
sS"sigir '90 proceedings of the 13th annual international acm sigir conference on research and development in information retrieval"
p202
g25
sS"sigmod '87 proceedings of the 1987 acm sigmod international conference on management of data"
p203
g56
sS"pods '04 proceedings of the twenty-third acm sigmod-sigact-sigart symposium on principles of database systems"
p204
g28
sS'machine learning: ecml 2006: 17th european conference on machine learning, berlin, germany, september 18-22, 2006, proceedings (lecture notes in computer science)'
p205
g14
sS"vldb '79 proceedings of the fifth international conference on very large data bases - volume 5"
p206
g32
sS"aaai'94 proceedings of the twelfth national conference on artificial intelligence (vol. 2)"
p207
g7
sS'12th international conference on information and knowledge management'
p208
g10
sS'proceedings of the 2010 acm sigmod international conference on management of data'
p209
g56
sS'the 33rd international acm sigir conference on research and development in information retrieval'
p210
g25
sS"pods '96 proceedings of the fifteenth acm sigact-sigmod-sigart symposium on principles of database systems"
p211
g28
sS'proceedings of the 2005 acm sigmod international conference on management of data'
p212
g56
sS'pkdd 2007 proceedings of the 11th european conference on principles and practice of knowledge discovery in databases'
p213
g14
sS"pakdd '98 proceedings of the second pacific-asia conference on research and development in knowledge discovery and data mining"
p214
g20
sS'hypermedia track of the 10th international world wide web conference'
p215
g49
sS"uai'91 proceedings of the seventh conference on uncertainty in artificial intelligence"
p216
g3
sS"sigir '06 proceedings of the 29th annual international acm sigir conference on research and development in information retrieval"
p217
g25
sS"icml '05 proceedings of the 22nd international conference on machine learning"
p218
g66
sS"ijcai'95 proceedings of the 14th international joint conference on artificial intelligence - volume 1"
p219
g12
sS"ijcai'95 proceedings of the 14th international joint conference on artificial intelligence - volume 2"
p220
g12
sS"aaai'07 proceedings of the 22nd national conference on artificial intelligence - volume 2"
p221
g7
sS"aaai'07 proceedings of the 22nd national conference on artificial intelligence - volume 1"
p222
g7
sS"uai '90 proceedings of the sixth annual conference on uncertainty in artificial intelligence"
p223
g3
sS"edbt '98 proceedings of the 6th international conference on extending database technology: advances in database technology"
p224
g30
sS"pods '95 proceedings of the fourteenth acm sigact-sigmod-sigart symposium on principles of database systems"
p225
g28
sS"ijcai'77 proceedings of the 5th international joint conference on artificial intelligence - volume 2"
p226
g12
sS'proceedings of the 7th international workshop on the web and databases: colocated with acm sigmod/pods 2004'
p227
g56
sS"ijcai'77 proceedings of the 5th international joint conference on artificial intelligence - volume 1"
p228
g12
sS"vldb '93 proceedings of the 19th international conference on very large data bases"
p229
g32
sS'ecml pkdd 2014 proceedings of the european conference on machine learning and knowledge discovery in databases - volume 8724'
p230
g14
sS"ecir'13 proceedings of the 35th european conference on advances in information retrieval"
p231
g51
sS"sigir '02 proceedings of the 25th annual international acm sigir conference on research and development in information retrieval"
p232
g25
sS"vldb '00 proceedings of the 26th international conference on very large data bases"
p233
g32
sS"sigir'89 the 12th annual international conference on research development in information retrieval"
p234
g25
sS"sigmod '88 proceedings of the 1988 acm sigmod international conference on management of data"
p235
g56
sS'proceedings of the 2009 acm sigmod international conference on management of data'
p236
g56
sS"aaai'87 proceedings of the sixth national conference on artificial intelligence - volume 1"
p237
g7
sS"aaai'87 proceedings of the sixth national conference on artificial intelligence - volume 2"
p238
g7
sS"edbt'06 proceedings of the 10th international conference on advances in database technology"
p239
g30
sS"sigir '80 proceedings of the 3rd annual acm conference on research and development in information retrieval"
p240
g25
sS"icdm '14 proceedings of the 2014 ieee international conference on data mining"
p241
g102
sS"cikm '03 proceedings of the twelfth international conference on information and knowledge management"
p242
g10
sS"aaai '99/iaai '99 proceedings of the sixteenth national conference on artificial intelligence and the eleventh innovative applications of artificial intelligence conference innovative applications of artificial intelligence"
p243
g7
sS'25th acm/sigir international conference on research and development in information retrieval'
p244
g25
sS'a pragmatic approach for integrating data management and tasks management: modelling and implementational issues. (also in advances in database technology edbt 1990).'
p245
g30
sS"pods '84 proceedings of the 3rd acm sigact-sigmod symposium on principles of database systems"
p246
g28
sS"ecir'11 proceedings of the 33rd european conference on advances in information retrieval"
p247
g51
sS"icde '02 proceedings of the 18th international conference on data engineering"
p248
g5
sS'proceedings of the 10th international conference on world wide web'
p249
g49
sS"pods '00 proceedings of the nineteenth acm sigmod-sigact-sigart symposium on principles of database systems"
p250
g28
sS"uai'99 proceedings of the fifteenth conference on uncertainty in artificial intelligence"
p251
g3
sS"ecml pkdd '09 proceedings of the european conference on machine learning and knowledge discovery in databases: part ii"
p252
g14
sS'sigir94 17th annual international acm sigir conference on research & development in information retrieval'
p253
g25
sS"ecir'07 proceedings of the 29th european conference on ir research"
p254
g51
sS"vldb '06 proceedings of the 32nd international conference on very large data bases"
p255
g32
sS"sigmod '00 proceedings of the 2000 acm sigmod international conference on management of data"
p256
g56
sS'proceedings of the 22nd international conference on world wide web'
p257
g49
sS'pods86 acm sigact-sigmod symposium on principles of database systems'
p258
g28
sS"pods '92 proceedings of the eleventh acm sigact-sigmod-sigart symposium on principles of database systems"
p259
g28
sS"ecml pkdd'10 proceedings of the 2010 european conference on machine learning and knowledge discovery in databases: part iii"
p260
g14
sS'22nd international world wide web conference'
p261
g49
sS"sigmod '04 proceedings of the 2004 acm sigmod international conference on management of data"
p262
g56
sS"pods '82 proceedings of the 1st acm sigact-sigmod symposium on principles of database systems"
p263
g28
sS"uai'94 proceedings of the tenth international conference on uncertainty in artificial intelligence"
p264
g3
sS"cikm '94 conference on information and knowledge management"
p265
g10
sS"vldb'00 very large data bases"
p266
g32
sS"sigir '91 proceedings of the 14th annual international acm sigir conference on research and development in information retrieval"
p267
g25
sS"uai '04 proceedings of the 20th conference on uncertainty in artificial intelligence"
p268
g3
sS'the 19th acm sigkdd international conference on knowledge discovery and data mining'
p269
g17
sS'ijcai-03: proceedings of the eighteenth international joint conference on artificial intelligence (international joint conference on artificial intelligence//proceedings)'
p270
g12
sS"aaai'08 proceedings of the 23rd national conference on artificial intelligence - volume 1"
p271
g7
sS"icdem'10 proceedings of the second international conference on data engineering and management"
p272
g5
sS"vldb '03 proceedings of the 29th international conference on very large data bases - volume 29"
p273
g32
sS"aaai'08 proceedings of the 23rd national conference on artificial intelligence - volume 2"
p274
g7
sS'proceedings of the 16th international conference on world wide web'
p275
g49
sS'proceedings of the 28th annual international acm sigir conference on research and development in information retrieval'
p276
g25
sS"sigmod '98 proceedings of the 1998 acm sigmod international conference on management of data"
p277
g56
sS"ecml '95 proceedings of the 8th european conference on machine learning"
p278
g14
sS'the ninth acm sigkdd international conference on knowledge discovery and data mining'
p279
g17
sS"pakdd'11 proceedings of the 15th international conference on new frontiers in applied data mining"
p280
g20
sS'proceedings of the eleventh acm sigkdd international conference on knowledge discovery in data mining'
p281
g17
sS"sigir '96 proceedings of the 19th annual international acm sigir conference on research and development in information retrieval"
p282
g25
sS"vldb '97 proceedings of the 23rd international conference on very large data bases"
p283
g32
sS"pods '85 proceedings of the fourth acm sigact-sigmod symposium on principles of database systems"
p284
g28
sS'advances in information retrieval: 27th european conference on ir research, ecir 2005, santiago de compostela, spain, march 21-23, 2005, proceedings (lecture notes in computer science)'
p285
g51
sS"ecml '00 proceedings of the 11th european conference on machine learning"
p286
g14
sS"ijcai'89 proceedings of the 11th international joint conference on artificial intelligence - volume 1"
p287
g12
sS"jcai '09 proceedings of the 2009 international joint conference on artificial intelligence"
p288
g12
sS'advances in database technology -- edbt 2006: 10 international conference on extending database technology, munich, germany, 26-31 march 2006, proceedings (lecture notes in computer science)'
p289
g30
sS"ijcai'85 proceedings of the 9th international joint conference on artificial intelligence - volume 1"
p290
g12
sS'proceedings of the seventh acm sigkdd international conference on knowledge discovery and data mining'
p291
g17
sS'the 17th acm sigkdd international conference on knowledge discovery and data mining'
p292
g17
sS"sigmod '79 proceedings of the 1979 acm sigmod international conference on management of data"
p293
g56
sS"icde '05 proceedings of the 21st international conference on data engineering"
p294
g5
sS"pods '12 proceedings of the 31st symposium on principles of database systems"
p295
g28
sS"pkdd '01 proceedings of the 5th european conference on principles of data mining and knowledge discovery"
p296
g14
sS"sigmod '77 proceedings of the 1977 acm sigmod international conference on management of data"
p297
g56
sS"pkdd '00 proceedings of the 4th european conference on principles of data mining and knowledge discovery"
p298
g14
sS"ijcai'71 proceedings of the 2nd international joint conference on artificial intelligence"
p299
g12
sS"sigir '07 proceedings of the 30th annual international acm sigir conference on research and development in information retrieval"
p300
g25
sS"sigir '81 proceedings of the 4th annual international acm sigir conference on information storage and retrieval: theoretical issues in information retrieval"
p301
g25
sS"ecir'2010 proceedings of the 32nd european conference on advances in information retrieval"
p302
g51
sS"sigmod '01 proceedings of the 2001 acm sigmod international conference on management of data"
p303
g56
sS"vldb '05 proceedings of the 31st international conference on very large data bases"
p304
g32
sS"ecml '93 proceedings of the european conference on machine learning"
p305
g14
sS"aaai '94 proceedings of the twelfth national conference on artificial intelligence (vol. 1)"
p306
g7
sS"icdm '12 proceedings of the 2012 ieee 12th international conference on data mining"
p307
g102
sS"icde '04 proceedings of the 20th international conference on data engineering"
p308
g5
sS"cikm '97 proceedings of the sixth international conference on information and knowledge management"
p309
g10
sS"ecml '97 proceedings of the 9th european conference on machine learning"
p310
g14
sS"vldb '84 proceedings of the 10th international conference on very large data bases"
p311
g32
sS'advances in information retrieval: 28th european conference on ir research, ecir 2006, london, uk, april 10-12, 2006, proceedings (lecture notes in computer science)'
p312
g51
sS'acm transactions on database systems (tods) - special issue: sigmod/pods 2003'
p313
g28
sS"icml '06 proceedings of the 23rd international conference on machine learning"
p314
g66
sS"vldb '88 proceedings of the 14th international conference on very large data bases"
p315
g32
sS"icdm '07 proceedings of the 2007 seventh ieee international conference on data mining"
p316
g102
sS'2014 acm conference on information and knowledge management'
p317
g10
sS"icml '01 proceedings of the eighteenth international conference on machine learning"
p318
g66
sS"ecml pkdd'10 proceedings of the 2010 european conference on machine learning and knowledge discovery in databases: part i"
p319
g14
sS'sigir92 15th international acm/sigir conference on research & development in information retrieval'
p320
g25
sS"vldb '94 proceedings of the 20th international conference on very large data bases"
p321
g32
sS"uai'01 proceedings of the seventeenth conference on uncertainty in artificial intelligence"
p322
g3
sS"emcl '01 proceedings of the 12th european conference on machine learning"
p323
g14
sS"ecml pkdd'12 proceedings of the 2012 european conference on machine learning and knowledge discovery in databases - volume part ii"
p324
g14
sS'proceedings of the 13th acm sigkdd international conference on knowledge discovery and data mining'
p325
g17
sS'uncertainty in artificial intelligence'
p326
g3
sS"ijcai'89 proceedings of the 11th international joint conference on artificial intelligence - volume 2"
p327
g12
sS"ecml '98 proceedings of the 10th european conference on machine learning"
p328
g14
sS'proceedings of the 2008 acm sigmod international conference on management of data'
p329
g56
sS"ecml'06 proceedings of the 17th european conference on machine learning"
p330
g14
sS'proceedings of the 2007 acm sigmod international conference on management of data'
p331
g56
sS'proceedings of the 22nd annual international acm sigir conference on research and development in information retrieval'
p332
g25
sS"pkdd'06 proceedings of the 10th european conference on principle and practice of knowledge discovery in databases"
p333
g14
sS"vldb '89 proceedings of the 15th international conference on very large data bases"
p334
g32
sS"vldb '95 proceedings of the 21th international conference on very large data bases"
p335
g32
sS'kdd-2001: proceedings of the seventh acm sigkdd international conference on knowledge discovery and data mining : august 26-29, 2001 san francisco, ca, usa'
p336
g17
sS"ecml pkdd'11 proceedings of the 2011 european conference on machine learning and knowledge discovery in databases - volume part i"
p337
g14
sS"vldb '86 proceedings of the 12th international conference on very large data bases"
p338
g32
sS"ijcai'11 proceedings of the twenty-second international joint conference on artificial intelligence - volume volume three"
p339
g12
sS'23rd acm international sigir conference on research and development in information retrieval'
p340
g25
sS"ijcai'99 proceedings of the 16th international joint conference on artificial intelligence - volume 2"
p341
g12
sS"ijcai'79 proceedings of the 6th international joint conference on artificial intelligence - volume 2"
p342
g12
sS'proceedings of the 24th international conference on world wide web'
p343
g49
sS"pakdd'10 proceedings of the 14th pacific-asia conference on advances in knowledge discovery and data mining - volume part i"
p344
g20
sS"edbt '88 proceedings of the international conference on extending database technology: advances in database technology"
p345
g30
sS'ecml pkdd 2013 proceedings of the european conference on machine learning and knowledge discovery in databases - volume 8188'
p346
g14
sS'proceedings of the 36th international acm sigir conference on research and development in information retrieval'
p347
g25
sS'acm transactions on database systems (tods) - special issue: papers from the international conference on very large data bases: september 22\xe2\x80\x9324, 1975, framingham, ma'
p348
g32
sS"vldb '02 proceedings of the 28th international conference on very large data bases"
p349
g32
sS'uncertainty in artificial intelligence 3'
p350
g3
sS"uai'97 proceedings of the thirteenth conference on uncertainty in artificial intelligence"
p351
g3
sS"sigmod '91 proceedings of the 1991 acm sigmod international conference on management of data"
p352
g56
sS"icml '02 proceedings of the nineteenth international conference on machine learning"
p353
g66
sS"sigmod '93 proceedings of the 1993 acm sigmod international conference on management of data"
p354
g56
sS'proceedings of the sixteenth acm conference on conference on information and knowledge management'
p355
g10
sS"ijcai'73 proceedings of the 3rd international joint conference on artificial intelligence"
p356
g12
sS"vldb '78 proceedings of the fourth international conference on very large data bases - volume 4"
p357
g32
sS"icdm '06 proceedings of the sixth international conference on data mining"
p358
g102
sS"sigmod '84 proceedings of the 1984 acm sigmod international conference on management of data"
p359
g56
sS"kdd '99 proceedings of the fifth acm sigkdd international conference on knowledge discovery and data mining"
p360
g17
sS"icdm '02 proceedings of the 2002 ieee international conference on data mining"
p361
g102
sS"vldb '87 proceedings of the 13th international conference on very large data bases"
p362
g32
sS"vldb '04 proceedings of the thirtieth international conference on very large data bases - volume 30"
p363
g32
sS'20th annual international acm sigir conference on research and development in information retrieval'
p364
g25
sS"uai'92 proceedings of the eighth international conference on uncertainty in artificial intelligence"
p365
g3
sS"icde '01 proceedings of the 17th international conference on data engineering"
p366
g5
sS"pakdd'06 proceedings of the 10th pacific-asia conference on advances in knowledge discovery and data mining"
p367
g20
sS"pakdd '99 proceedings of the third pacific-asia conference on methodologies for knowledge discovery and data mining"
p368
g20
sS"icde '96 proceedings of the twelfth international conference on data engineering"
p369
g5
sS'cikm93 conference on information and knowledge management'
p370
g10
sS'proceedings of the 14th acm international conference on information and knowledge management'
p371
g10
sS"ecml pkdd'11 proceedings of the 2011 european conference on machine learning and knowledge discovery in databases - volume part iii"
p372
g14
sS'aaai 93: proceedings of the eleventh national conference on artificial intelligence'
p373
g7
sS"icml '04 proceedings of the twenty-first international conference on machine learning"
p374
g66
sS"ijcai '99 proceedings of the sixteenth international joint conference on artificial intelligence"
p375
g12
sS'the 18th acm sigkdd international conference on knowledge discovery and data mining'
p376
g17
sS"aaai'96 proceedings of the thirteenth national conference on artificial intelligence - volume 1"
p377
g7
sS"aaai'96 proceedings of the thirteenth national conference on artificial intelligence - volume 2"
p378
g7
sS'proceedings of the 23rd acm international conference on conference on information and knowledge management'
p379
g10
sS"pkdd '98 proceedings of the second european symposium on principles of data mining and knowledge discovery"
p380
g14
sS"pakdd'11 proceedings of the 15th pacific-asia conference on advances in knowledge discovery and data mining - volume part i"
p381
g20
sS"uai '09 25 conference on uncertainty in artificial intelligence"
p382
g3
sS'uncertainty in artificial intelligence: proceedings of the thirteenth conference'
p383
g3
sS"sigmod '94 proceedings of the 1994 acm sigmod international conference on management of data"
p384
g56
sS"pakdd'08 proceedings of the 12th pacific-asia conference on advances in knowledge discovery and data mining"
p385
g20
sS"aaai'04 proceedings of the 19th national conference on artifical intelligence"
p386
g7
sS"icde '95 proceedings of the eleventh international conference on data engineering"
p387
g5
sS'proceedings of the 25th international conference on machine learning'
p388
g66
sS"aaai'93 proceedings of the eleventh national conference on artificial intelligence"
p389
g7
sS"icde '06 proceedings of the 22nd international conference on data engineering"
p390
g5
sS'21st acm international conference on information and knowledge management'
p391
g10
sS'acm transactions on database systems (tods) - special issue: sigmod/pods 2004'
p392
g28
sS"uai'93 proceedings of the ninth international conference on uncertainty in artificial intelligence"
p393
g3
sS'proceedings of the twentieth international conference on machine learning: august 21-24, 2003 washington, dc usa'
p394
g66
sS"icdm '03 proceedings of the third ieee international conference on data mining"
p395
g102
sS"pakdd'12 proceedings of the 2012 pacific-asia conference on emerging trends in knowledge discovery and data mining"
p396
g20
sS"sigmod '92 proceedings of the 1992 acm sigmod international conference on management of data"
p397
g56
sS'proceedings of the 2015 acm sigmod international conference on management of data'
p398
g56
sS'proceedings of the 11th international conference on world wide web'
p399
g49
sS'the 18th international world wide web conference'
p400
g49
sS"cikm '10 proceedings of the 19th acm international conference on information and knowledge management"
p401
g10
sS'proceedings of the 27th annual international acm sigir conference on research and development in information retrieval'
p402
g25
sS"pkdd '99 proceedings of the third european conference on principles of data mining and knowledge discovery"
p403
g14
sS"pakdd'12 proceedings of the 16th pacific-asia conference on advances in knowledge discovery and data mining - volume part i"
p404
g20
sS"pkdd'05 proceedings of the 9th european conference on principles and practice of knowledge discovery in databases"
p405
g14
sS"icdm '01 proceedings of the 2001 ieee international conference on data mining"
p406
g102
sS'proceedings of the 33rd international conference on very large data bases'
p407
g32
sS"vldb '77 proceedings of the third international conference on very large data bases - volume 3"
p408
g32
sS"ecml pkdd '08 proceedings of the 2008 european conference on machine learning and knowledge discovery in databases - part i"
p409
g14
sS"ijcai'87 proceedings of the 10th international joint conference on artificial intelligence - volume 2"
p410
g12
sS"ijcai'87 proceedings of the 10th international joint conference on artificial intelligence - volume 1"
p411
g12
sS"aaai '98/iaai '98 proceedings of the fifteenth national/tenth conference on artificial intelligence/innovative applications of artificial intelligence"
p412
g7
sS"sigir '95 proceedings of the 18th annual international acm sigir conference on research and development in information retrieval"
p413
g25
sS"sigmod '89 proceedings of the 1989 acm sigmod international conference on management of data"
p414
g56
sS'the 13th acm sigkdd international conference on knowledge discovery and data mining'
p415
g17
sS"edbt '92 proceedings of the 3rd international conference on extending database technology: advances in database technology"
p416
g30
sS"advances in database technology - edbt '92"
p417
g30
sS"pods '89 selected papers of the eighth acm sigact-sigmod-sigart symposium on principles of database systems"
p418
g28
sS'proceedings of the tenth international joint conference on artificial intelligence'
p419
g12
sS"edbt '96 proceedings of the 5th international conference on extending database technology: advances in database technology"
p420
g30
sS"sigir '93 proceedings of the 16th annual international acm sigir conference on research and development in information retrieval"
p421
g25
sS'aaai 1996: proceedings of the thirteenth national conference on artificial intelligence, august 4-8, portland, oregon'
p422
g7
sS"sigmod '83 proceedings of the 1983 acm sigmod international conference on management of data"
p423
g56
sS"cikm '06 proceedings of the 15th acm international conference on information and knowledge management"
p424
g10
sS"vldb '82 proceedings of the 8th international conference on very large data bases"
p425
g32
sS"cikm '95 proceedings of the fourth international conference on information and knowledge management"
p426
g10
sS'proceedings of the 9th annual international acm sigir conference on research and development in information retrieval'
p427
g25
sS'24th acm/sigir international conference on research and development in information retrieval'
p428
g25
sS"pods '97 proceedings of the sixteenth acm sigact-sigmod-sigart symposium on principles of database systems"
p429
g28
sS'the 16th acm sigkdd international conference on knowledge discovery and data mining'
p430
g17
sS'21st annual acm/sigir international conference on research and development in information retrieval'
p431
g25
sS"ecml'05 proceedings of the 16th european conference on machine learning"
p432
g14
sS'world wide web conference: proceedings: international world wide web conference (8th, 1999: toronto, canada)'
p433
g49
sS'the vldb journal \xe2\x80\x94 the international journal on very large data bases - spatial database systems'
p434
g32
sS"sigir '89 proceedings of the 12th annual international acm sigir conference on research and development in information retrieval"
p435
g25
sS"uai'00 proceedings of the sixteenth conference on uncertainty in artificial intelligence"
p436
g3
sS"ecir'06 proceedings of the 28th european conference on advances in information retrieval"
p437
g51
sS'proceedings of the eighth international conference on information and knowledge management'
p438
g10
sS"pakdd'07 proceedings of the 2007 international conference on emerging technologies in knowledge discovery and data mining"
p439
g20
sS'the 15th acm sigkdd international conference on knowledge discovery and data mining'
p440
g17
sS"advances in database technology - edbt '94: proceedings of the fourth international conference on extending database technology, cambridge, uk, march 28-31, 1994"
p441
g30
sS"pakdd '09 proceedings of the 13th pacific-asia conference on advances in knowledge discovery and data mining"
p442
g20
sS"cikm '94 proceedings of the third international conference on information and knowledge management"
p443
g10
sS'proceedings of the 2002 acm sigmod international conference on management of data'
p444
g56
sS"pods'90 9th annual acm sigact-sigmod-sigart symposium on principles of database systems"
p445
g28
sS"pakdd '01 proceedings of the 5th pacific-asia conference on knowledge discovery and data mining"
p446
g20
sS'proceedings of the 27th international conference on very large data bases'
p447
g32
sS"vldb '98 proceedings of the 24rd international conference on very large data bases"
p448
g32
sS"pkdd '04 proceedings of the 8th european conference on principles and practice of knowledge discovery in databases"
p449
g14
sS'22nd annual international acm sigir conference on research and development in information retrieval'
p450
g25
sS"pakdd'09 proceedings of the 13th pacific-asia international conference on knowledge discovery and data mining: new frontiers in applied data mining"
p451
g20
sS'the 14th acm sigkdd international conference on knowledge discovery and data mining'
p452
g17
sS"sigmod '96 proceedings of the 1996 acm sigmod international conference on management of data"
p453
g56
sS'the 28th acm/sigir international symposium on information retrieval 2005'
p454
g25
sS'the 20th acm sigkdd international conference on knowledge discovery and data mining'
p455
g17
sS"sigmod '99 proceedings of the 1999 acm sigmod international conference on management of data"
p456
g56
sS'proceedings of the 21st international conference on world wide web'
p457
g49
sS"pods '98 proceedings of the seventeenth acm sigact-sigmod-sigart symposium on principles of database systems"
p458
g28
sS'22nd acm international conference on information and knowledge management'
p459
g10
sS"uai'96 proceedings of the twelfth international conference on uncertainty in artificial intelligence"
p460
g3
sS"www '05 proceedings of the 14th international conference on world wide web"
p461
g49
sS"icdm '09 proceedings of the 2009 ninth ieee international conference on data mining"
p462
g102
sS"vldb '85 proceedings of the 11th international conference on very large data bases - volume 11"
p463
g32
sS"aaai'91 proceedings of the ninth national conference on artificial intelligence - volume 1"
p464
g7
sS"aaai'91 proceedings of the ninth national conference on artificial intelligence - volume 2"
p465
g7
sS'sixth international conference on information and knowledge management'
p466
g10
sS'proceedings of the 15th acm sigkdd international conference on knowledge discovery and data mining'
p467
g17
sS'proceedings of the 19th acm sigkdd international conference on knowledge discovery and data mining'
p468
g17
sS'the 12th acm sigkdd international conference on knowledge discovery and data mining'
p469
g17
sS"cikm '93 proceedings of the second international conference on information and knowledge management"
p470
g10
sS"uai '88 proceedings of the fourth annual conference on uncertainty in artificial intelligence"
p471
g3
sS"pods '90 proceedings of the ninth acm sigact-sigmod-sigart symposium on principles of database systems"
p472
g28
sS"edbt '90 proceedings of the 2nd international conference on extending database technology: advances in database technology"
p473
g30
sS"icde '99 proceedings of the 15th international conference on data engineering"
p474
g5
sS"ecir'05 proceedings of the 27th european conference on advances in information retrieval research"
p475
g51
sS"sigir '83 proceedings of the 6th annual international acm sigir conference on research and development in information retrieval"
p476
g25
sS'proceedings of the thirteenth acm international conference on information and knowledge management'
p477
g10
sS'advances in database technology - edbt 2004'
p478
g30
sS"icdm '04 proceedings of the fourth ieee international conference on data mining"
p479
g102
sS"ijcai'81 proceedings of the 7th international joint conference on artificial intelligence - volume 2"
p480
g12
sS"sigmod '78 proceedings of the 1978 acm sigmod international conference on management of data"
p481
g56
sS'proceedings of the 37th international acm sigir conference on research & development in information retrieval'
p482
g25
sS'proceedings of the 34th international acm sigir conference on research and development in information retrieval'
p483
g25
sS"vldb '83 proceedings of the 9th international conference on very large data bases"
p484
g32
sS'eleventh acm international conference on information and knowledge management'
p485
g10
sS'proceedings of the ninth acm sigkdd international conference on knowledge discovery and data mining'
p486
g17
sS"uai'95 proceedings of the eleventh conference on uncertainty in artificial intelligence"
p487
g3
sS"sigir '12 proceedings of the 35th international acm sigir conference on research and development in information retrieval"
p488
g25
sS'proceedings of the 24th annual international acm sigir conference on research and development in information retrieval'
p489
g25
sS'ecml-94 proceedings of the european conference on machine learning on machine learning'
p490
g14
sS"vldb '91 proceedings of the 17th international conference on very large data bases"
p491
g32
sS'the 35th international acm sigir conference on research and development in information retrieval'
p492
g25
sS'proceedings of the 20th annual international acm sigir conference on research and development in information retrieval'
p493
g25
sS"ecml pkdd '09 proceedings of the european conference on machine learning and knowledge discovery in databases: part i"
p494
g14
sS"ecir'03 proceedings of the 25th european conference on ir research"
p495
g51
sS"uai '00 proceedings of the 16th conference on uncertainty in artificial intelligence"
p496
g3
sS"ecml '02 proceedings of the 13th european conference on machine learning"
p497
g14
sS'the 19th international world wide web conference'
p498
g49
sS"edbt '08 proceedings of the 11th international conference on extending database technology: advances in database technology"
p499
g30
sS'proceedings of the 2014 acm sigmod international conference on management of data'
p500
g56
sS'advances in information retrieval: 26th european conference on ir research, ecir 2004, sunderland, uk, april 5-7, 2004, proceedings (lecture notes in computer science)'
p501
g51
sS"aaai'92 proceedings of the tenth national conference on artificial intelligence"
p502
g7
s.