(dp1
S'icml (2)'
p2
S'ICML'
p3
sS'www (alternate track papers & posters)'
p4
S'WWW'
p5
sS'www'
p6
g5
sS'pakdd'
p7
S'PAKDD'
p8
sS'ecml/pkdd (2)'
p9
S'PKDD'
p10
sS'sigkdd'
p11
S'KDD'
p12
sS'vldb'
p13
S'VLDB'
p14
sS'uai'
p15
S'UAI'
p16
sS'icde'
p17
S'ICDE'
p18
sS'aaai'
p19
S'AAAI'
p20
sS'pakdd (2)'
p21
g8
sS'pkdd'
p22
g10
sS'sigmod conference'
p23
S'SIGMOD'
p24
sS'proceedings of the 12th acm sigkdd international conference on knowledge discovery and data mining'
p25
g12
sS'kdd'
p26
g12
sS'edbt'
p27
S'EDBT'
p28
sS'ecml/pkdd (1)'
p29
g10
sS'ecml/pkdd (3)'
p30
g10
sS'icml'
p31
g3
sS'ecir'
p32
S'ECIR'
p33
sS'sigir'
p34
S'SIGIR'
p35
sS'pakdd (1)'
p36
g8
sS'ijcai (2)'
p37
S'IJCAI'
p38
sS'ijcai'
p39
g38
sS'ijcai (1)'
p40
g38
sS'proceedings of the 19th acm sigkdd international conference on knowledge discovery and data mining'
p41
g12
sS'www (alternate track papers)'
p42
g5
sS'icdm'
p43
S'ICDM'
p44
sS'www (special interest tracks and posters)'
p45
g5
sS'cikm'
p46
S'CIKM'
p47
sS'ecml'
p48
g10
sS'www (alternate paper tracks)'
p49
g5
sS'ecml/pkdd'
p50
g10
sS'icml (1)'
p51
g3
sS'pods'
p52
S'PODS'
p53
sS'proceedings of the 17th acm sigkdd international conference on knowledge discovery and data mining'
p54
g12
sS'icml (3)'
p55
g3
s.